target datalayout = "e-m:e-p270:32:32-p271:32:32-p272:64:64-i64:64-i128:128-f80:128-n8:16:32:64-S128"
target triple = "x86_64-pc-linux-gnu"

%struct.jpeg_decompress_struct = type { ptr, ptr, ptr, ptr, i32, i32, ptr, i32, i32, i32, i32, i32, i32, i32, double, i32, i32, i32, i32, i32, i32, i32, i32, i32, i32, i32, i32, i32, i32, i32, i32, i32, i32, ptr, i32, i32, i32, i32, i32, ptr, [4 x ptr], [4 x ptr], [4 x ptr], i32, ptr, i32, i32, [16 x i8], [16 x i8], [16 x i8], i32, i32, i8, i8, i8, i16, i16, i32, i8, i32, ptr, i32, i32, i32, i32, ptr, i32, [4 x ptr], i32, i32, i32, [10 x i32], i32, i32, i32, i32, i32, ptr, ptr, ptr, ptr, ptr, ptr, ptr, ptr, ptr, ptr, ptr }
%struct.jpeg_memory_mgr = type { ptr, ptr, ptr, ptr, ptr, ptr, ptr, ptr, ptr, ptr, ptr, i64, i64 }
%struct.my_upsampler = type { %struct.jpeg_upsampler, ptr, ptr, ptr, ptr, ptr, ptr, i32, i32, i32 }
%struct.jpeg_upsampler = type { ptr, ptr, i32 }

; Function Attrs: nounwind uwtable
define internal void @build_ycc_rgb_table(ptr noundef %0) #0 {
  %2 = alloca ptr, align 8
  %3 = alloca ptr, align 8
  %4 = alloca i32, align 4
  %5 = alloca i32, align 4
  store ptr %0, ptr %2, align 8
  %6 = load ptr, ptr %2, align 8
  %7 = getelementptr inbounds %struct.jpeg_decompress_struct, ptr %6, i32 0, i32 85
  %8 = load ptr, ptr %7, align 8
  store ptr %8, ptr %3, align 8
  %9 = load ptr, ptr %2, align 8
  %10 = getelementptr inbounds %struct.jpeg_decompress_struct, ptr %9, i32 0, i32 1
  %11 = load ptr, ptr %10, align 8
  %12 = getelementptr inbounds %struct.jpeg_memory_mgr, ptr %11, i32 0, i32 0
  %13 = load ptr, ptr %12, align 8
  %14 = load ptr, ptr %2, align 8
  %15 = call ptr %13(ptr noundef %14, i32 noundef 1, i64 noundef 1024)
  %16 = load ptr, ptr %3, align 8
  %17 = getelementptr inbounds %struct.my_upsampler, ptr %16, i32 0, i32 2
  store ptr %15, ptr %17, align 8
  %18 = load ptr, ptr %2, align 8
  %19 = getelementptr inbounds %struct.jpeg_decompress_struct, ptr %18, i32 0, i32 1
  %20 = load ptr, ptr %19, align 8
  %21 = getelementptr inbounds %struct.jpeg_memory_mgr, ptr %20, i32 0, i32 0
  %22 = load ptr, ptr %21, align 8
  %23 = load ptr, ptr %2, align 8
  %24 = call ptr %22(ptr noundef %23, i32 noundef 1, i64 noundef 1024)
  %25 = load ptr, ptr %3, align 8
  %26 = getelementptr inbounds %struct.my_upsampler, ptr %25, i32 0, i32 3
  store ptr %24, ptr %26, align 8
  %27 = load ptr, ptr %2, align 8
  %28 = getelementptr inbounds %struct.jpeg_decompress_struct, ptr %27, i32 0, i32 1
  %29 = load ptr, ptr %28, align 8
  %30 = getelementptr inbounds %struct.jpeg_memory_mgr, ptr %29, i32 0, i32 0
  %31 = load ptr, ptr %30, align 8
  %32 = load ptr, ptr %2, align 8
  %33 = call ptr %31(ptr noundef %32, i32 noundef 1, i64 noundef 1024)
  %34 = load ptr, ptr %3, align 8
  %35 = getelementptr inbounds %struct.my_upsampler, ptr %34, i32 0, i32 4
  store ptr %33, ptr %35, align 8
  %36 = load ptr, ptr %2, align 8
  %37 = getelementptr inbounds %struct.jpeg_decompress_struct, ptr %36, i32 0, i32 1
  %38 = load ptr, ptr %37, align 8
  %39 = getelementptr inbounds %struct.jpeg_memory_mgr, ptr %38, i32 0, i32 0
  %40 = load ptr, ptr %39, align 8
  %41 = load ptr, ptr %2, align 8
  %42 = call ptr %40(ptr noundef %41, i32 noundef 1, i64 noundef 1024)
  %43 = load ptr, ptr %3, align 8
  %44 = getelementptr inbounds %struct.my_upsampler, ptr %43, i32 0, i32 5
  store ptr %42, ptr %44, align 8
  store i32 0, ptr %4, align 4
  store i32 -128, ptr %5, align 4
  br label %45

45:                                               ; preds = %86, %1
  %46 = load i32, ptr %4, align 4
  %47 = icmp sle i32 %46, 255
  br i1 %47, label %48, label %91

48:                                               ; preds = %45
  %49 = load i32, ptr %5, align 4
  %50 = mul nsw i32 91881, %49
  %51 = add nsw i32 %50, 32768
  %52 = ashr i32 %51, 16
  %53 = load ptr, ptr %3, align 8
  %54 = getelementptr inbounds %struct.my_upsampler, ptr %53, i32 0, i32 2
  %55 = load ptr, ptr %54, align 8
  %56 = load i32, ptr %4, align 4
  %57 = sext i32 %56 to i64
  %58 = getelementptr inbounds i32, ptr %55, i64 %57
  store i32 %52, ptr %58, align 4
  %59 = load i32, ptr %5, align 4
  %60 = mul nsw i32 116130, %59
  %61 = add nsw i32 %60, 32768
  %62 = ashr i32 %61, 16
  %63 = load ptr, ptr %3, align 8
  %64 = getelementptr inbounds %struct.my_upsampler, ptr %63, i32 0, i32 3
  %65 = load ptr, ptr %64, align 8
  %66 = load i32, ptr %4, align 4
  %67 = sext i32 %66 to i64
  %68 = getelementptr inbounds i32, ptr %65, i64 %67
  store i32 %62, ptr %68, align 4
  %69 = load i32, ptr %5, align 4
  %70 = mul nsw i32 -46802, %69
  %71 = load ptr, ptr %3, align 8
  %72 = getelementptr inbounds %struct.my_upsampler, ptr %71, i32 0, i32 4
  %73 = load ptr, ptr %72, align 8
  %74 = load i32, ptr %4, align 4
  %75 = sext i32 %74 to i64
  %76 = getelementptr inbounds i32, ptr %73, i64 %75
  store i32 %70, ptr %76, align 4
  %77 = load i32, ptr %5, align 4
  %78 = mul nsw i32 -22554, %77
  %79 = add nsw i32 %78, 32768
  %80 = load ptr, ptr %3, align 8
  %81 = getelementptr inbounds %struct.my_upsampler, ptr %80, i32 0, i32 5
  %82 = load ptr, ptr %81, align 8
  %83 = load i32, ptr %4, align 4
  %84 = sext i32 %83 to i64
  %85 = getelementptr inbounds i32, ptr %82, i64 %84
  store i32 %79, ptr %85, align 4
  br label %86

86:                                               ; preds = %48
  %87 = load i32, ptr %4, align 4
  %88 = add nsw i32 %87, 1
  store i32 %88, ptr %4, align 4
  %89 = load i32, ptr %5, align 4
  %90 = add nsw i32 %89, 1
  store i32 %90, ptr %5, align 4
  br label %45, !llvm.loop !9

91:                                               ; preds = %45
  ret void
}

; Function Attrs: nounwind uwtable
define hidden void @jIMUpsampler(ptr noundef %0) #0 {
  %2 = alloca ptr, align 8
  %3 = alloca ptr, align 8
  store ptr %0, ptr %2, align 8
  %4 = load ptr, ptr %2, align 8
  %5 = getelementptr inbounds %struct.jpeg_decompress_struct, ptr %4, i32 0, i32 1
  %6 = load ptr, ptr %5, align 8
  %7 = getelementptr inbounds %struct.jpeg_memory_mgr, ptr %6, i32 0, i32 0
  %8 = load ptr, ptr %7, align 8
  %9 = load ptr, ptr %2, align 8
  %10 = call ptr %8(ptr noundef %9, i32 noundef 1, i64 noundef 88)
  store ptr %10, ptr %3, align 8
  %11 = load ptr, ptr %3, align 8
  %12 = load ptr, ptr %2, align 8
  %13 = getelementptr inbounds %struct.jpeg_decompress_struct, ptr %12, i32 0, i32 85
  store ptr %11, ptr %13, align 8
  %14 = load ptr, ptr %3, align 8
  %15 = getelementptr inbounds %struct.my_upsampler, ptr %14, i32 0, i32 0
  %16 = getelementptr inbounds %struct.jpeg_upsampler, ptr %15, i32 0, i32 0
  store ptr @start_pass_merged_upsample, ptr %16, align 8
  %17 = load ptr, ptr %3, align 8
  %18 = getelementptr inbounds %struct.my_upsampler, ptr %17, i32 0, i32 0
  %19 = getelementptr inbounds %struct.jpeg_upsampler, ptr %18, i32 0, i32 2
  store i32 0, ptr %19, align 8
  %20 = load ptr, ptr %2, align 8
  %21 = getelementptr inbounds %struct.jpeg_decompress_struct, ptr %20, i32 0, i32 27
  %22 = load i32, ptr %21, align 8
  %23 = load ptr, ptr %2, align 8
  %24 = getelementptr inbounds %struct.jpeg_decompress_struct, ptr %23, i32 0, i32 29
  %25 = load i32, ptr %24, align 8
  %26 = mul i32 %22, %25
  %27 = load ptr, ptr %3, align 8
  %28 = getelementptr inbounds %struct.my_upsampler, ptr %27, i32 0, i32 8
  store i32 %26, ptr %28, align 4
  %29 = load ptr, ptr %2, align 8
  %30 = getelementptr inbounds %struct.jpeg_decompress_struct, ptr %29, i32 0, i32 62
  %31 = load i32, ptr %30, align 4
  %32 = icmp eq i32 %31, 2
  br i1 %32, label %33, label %53

33:                                               ; preds = %1
  %34 = load ptr, ptr %3, align 8
  %35 = getelementptr inbounds %struct.my_upsampler, ptr %34, i32 0, i32 0
  %36 = getelementptr inbounds %struct.jpeg_upsampler, ptr %35, i32 0, i32 1
  store ptr @merged_2v_upsample, ptr %36, align 8
  %37 = load ptr, ptr %3, align 8
  %38 = getelementptr inbounds %struct.my_upsampler, ptr %37, i32 0, i32 1
  store ptr @h2v2_merged_upsample, ptr %38, align 8
  %39 = load ptr, ptr %2, align 8
  %40 = getelementptr inbounds %struct.jpeg_decompress_struct, ptr %39, i32 0, i32 1
  %41 = load ptr, ptr %40, align 8
  %42 = getelementptr inbounds %struct.jpeg_memory_mgr, ptr %41, i32 0, i32 1
  %43 = load ptr, ptr %42, align 8
  %44 = load ptr, ptr %2, align 8
  %45 = load ptr, ptr %3, align 8
  %46 = getelementptr inbounds %struct.my_upsampler, ptr %45, i32 0, i32 8
  %47 = load i32, ptr %46, align 4
  %48 = zext i32 %47 to i64
  %49 = mul i64 %48, 1
  %50 = call ptr %43(ptr noundef %44, i32 noundef 1, i64 noundef %49)
  %51 = load ptr, ptr %3, align 8
  %52 = getelementptr inbounds %struct.my_upsampler, ptr %51, i32 0, i32 6
  store ptr %50, ptr %52, align 8
  br label %61

53:                                               ; preds = %1
  %54 = load ptr, ptr %3, align 8
  %55 = getelementptr inbounds %struct.my_upsampler, ptr %54, i32 0, i32 0
  %56 = getelementptr inbounds %struct.jpeg_upsampler, ptr %55, i32 0, i32 1
  store ptr @merged_1v_upsample, ptr %56, align 8
  %57 = load ptr, ptr %3, align 8
  %58 = getelementptr inbounds %struct.my_upsampler, ptr %57, i32 0, i32 1
  store ptr @h2v1_merged_upsample, ptr %58, align 8
  %59 = load ptr, ptr %3, align 8
  %60 = getelementptr inbounds %struct.my_upsampler, ptr %59, i32 0, i32 6
  store ptr null, ptr %60, align 8
  br label %61

61:                                               ; preds = %53, %33
  %62 = load ptr, ptr %2, align 8
  call void @build_ycc_rgb_table(ptr noundef %62)
  ret void
}