; Function Attrs: nounwind uwtable
define hidden void @jIMUpsampler(ptr noundef %0) local_unnamed_addr #0 {
  %2 = getelementptr inbounds i8, ptr %0, i64 8
  %3 = load ptr, ptr %2, align 8
  %4 = load ptr, ptr %3, align 8
  %5 = tail call ptr %4(ptr noundef %0, i32 noundef 1, i64 noundef 88) #5
  %6 = getelementptr inbounds i8, ptr %0, i64 608
  store ptr %5, ptr %6, align 8
  store ptr @start_pass_merged_upsample, ptr %5, align 8
  %7 = getelementptr inbounds i8, ptr %5, i64 16
  store i32 0, ptr %7, align 8
  %8 = getelementptr inbounds i8, ptr %0, i64 136
  %9 = load i32, ptr %8, align 8
  %10 = getelementptr inbounds i8, ptr %0, i64 144
  %11 = load i32, ptr %10, align 8
  %12 = mul i32 %11, %9
  %13 = getelementptr inbounds i8, ptr %5, i64 76
  store i32 %12, ptr %13, align 4
  %14 = getelementptr inbounds i8, ptr %0, i64 412
  %15 = load i32, ptr %14, align 4
  %16 = icmp eq i32 %15, 2
  %17 = getelementptr inbounds i8, ptr %5, i64 8
  %18 = getelementptr inbounds i8, ptr %5, i64 24
  br i1 %16, label %19, label %25

19:                                               ; preds = %1
  store ptr @merged_2v_upsample, ptr %17, align 8
  store ptr @h2v2_merged_upsample, ptr %18, align 8
  %20 = load ptr, ptr %2, align 8
  %21 = getelementptr inbounds i8, ptr %20, i64 8
  %22 = load ptr, ptr %21, align 8
  %23 = zext i32 %12 to i64
  %24 = tail call ptr %22(ptr noundef nonnull %0, i32 noundef 1, i64 noundef %23) #5
  br label %26

25:                                               ; preds = %1
  store ptr @merged_1v_upsample, ptr %17, align 8
  store ptr @h2v1_merged_upsample, ptr %18, align 8
  br label %26

26:                                               ; preds = %25, %19
  %.sink = phi ptr [ %24, %19 ], [ null, %25 ]
  %27 = getelementptr inbounds i8, ptr %5, i64 64
  store ptr %.sink, ptr %27, align 8
  %28 = load ptr, ptr %6, align 8
  %29 = load ptr, ptr %2, align 8
  %30 = load ptr, ptr %29, align 8
  %31 = tail call ptr %30(ptr noundef nonnull %0, i32 noundef 1, i64 noundef 1024) #5
  %32 = getelementptr inbounds i8, ptr %28, i64 32
  store ptr %31, ptr %32, align 8
  %33 = load ptr, ptr %2, align 8
  %34 = load ptr, ptr %33, align 8
  %35 = tail call ptr %34(ptr noundef nonnull %0, i32 noundef 1, i64 noundef 1024) #5
  %36 = getelementptr inbounds i8, ptr %28, i64 40
  store ptr %35, ptr %36, align 8
  %37 = load ptr, ptr %2, align 8
  %38 = load ptr, ptr %37, align 8
  %39 = tail call ptr %38(ptr noundef nonnull %0, i32 noundef 1, i64 noundef 1024) #5
  %40 = getelementptr inbounds i8, ptr %28, i64 48
  store ptr %39, ptr %40, align 8
  %41 = load ptr, ptr %2, align 8
  %42 = load ptr, ptr %41, align 8
  %43 = tail call ptr %42(ptr noundef nonnull %0, i32 noundef 1, i64 noundef 1024) #5
  %44 = getelementptr inbounds i8, ptr %28, i64 56
  store ptr %43, ptr %44, align 8
  br label %45

45:                                               ; preds = %45, %26
  %indvars.iv.i = phi i64 [ 0, %26 ], [ %indvars.iv.next.i, %45 ]
  %.029.i = phi i32 [ -128, %26 ], [ %63, %45 ]
  %46 = mul nsw i32 %.029.i, 91881
  %47 = add nsw i32 %46, 32768
  %48 = ashr i32 %47, 16
  %49 = load ptr, ptr %32, align 8
  %50 = getelementptr inbounds i32, ptr %49, i64 %indvars.iv.i
  store i32 %48, ptr %50, align 4
  %51 = mul nsw i32 %.029.i, 116130
  %52 = add nsw i32 %51, 32768
  %53 = ashr i32 %52, 16
  %54 = load ptr, ptr %36, align 8
  %55 = getelementptr inbounds i32, ptr %54, i64 %indvars.iv.i
  store i32 %53, ptr %55, align 4
  %56 = mul nsw i32 %.029.i, -46802
  %57 = load ptr, ptr %40, align 8
  %58 = getelementptr inbounds i32, ptr %57, i64 %indvars.iv.i
  store i32 %56, ptr %58, align 4
  %59 = mul nsw i32 %.029.i, -22554
  %60 = add nsw i32 %59, 32768
  %61 = load ptr, ptr %44, align 8
  %62 = getelementptr inbounds i32, ptr %61, i64 %indvars.iv.i
  store i32 %60, ptr %62, align 4
  %indvars.iv.next.i = add nuw nsw i64 %indvars.iv.i, 1
  %63 = add nsw i32 %.029.i, 1
  %exitcond.not.i = icmp eq i64 %indvars.iv.next.i, 256
  br i1 %exitcond.not.i, label %build_ycc_rgb_table.exit, label %45, !llvm.loop !6

build_ycc_rgb_table.exit:                         ; preds = %45
  ret void
}